; ModuleID = '56/937.c'
source_filename = "56/937.c"
target datalayout = "e-m:e-p270:32:32-p271:32:32-p272:64:64-i64:64-f80:128-n8:16:32:64-S128"
target triple = "x86_64-pc-linux-gnu"

@.str = private unnamed_addr constant [3 x i8] c"%d\00", align 1
@.str.1 = private unnamed_addr constant [4 x i8] c"%d\0A\00", align 1

; Function Attrs: noinline nounwind uwtable
define dso_local void @main() #0 {
  %1 = alloca [10 x i32], align 16
  %2 = alloca i32, align 4
  %3 = alloca i32, align 4
  %4 = alloca i32, align 4
  %5 = alloca i32, align 4
  %6 = alloca i32, align 4
  %7 = alloca i32, align 4
  %8 = alloca i32, align 4
  store i32 1, i32* %2, align 4
  store i32 0, i32* %7, align 4
  store i32 1, i32* %8, align 4
  %9 = call i32 (i8*, ...) @__isoc99_scanf(i8* getelementptr inbounds ([3 x i8], [3 x i8]* @.str, i64 0, i64 0), i32* %4)
  store i32 0, i32* %2, align 4
  br label %10

10:                                               ; preds = %28, %0
  %11 = load i32, i32* %2, align 4
  %12 = icmp sle i32 %11, 5
  br i1 %12, label %13, label %31

13:                                               ; preds = %10
  %14 = load i32, i32* %8, align 4
  %15 = load i32, i32* %4, align 4
  %16 = icmp sle i32 %14, %15
  br i1 %16, label %17, label %25

17:                                               ; preds = %13
  %18 = load i32, i32* %4, align 4
  %19 = load i32, i32* %8, align 4
  %20 = mul nsw i32 %19, 10
  %21 = icmp slt i32 %18, %20
  br i1 %21, label %22, label %25

22:                                               ; preds = %17
  %23 = load i32, i32* %2, align 4
  %24 = add nsw i32 %23, 1
  store i32 %24, i32* %6, align 4
  br label %31

25:                                               ; preds = %17, %13
  %26 = load i32, i32* %8, align 4
  %27 = mul nsw i32 %26, 10
  store i32 %27, i32* %8, align 4
  br label %28

28:                                               ; preds = %25
  %29 = load i32, i32* %2, align 4
  %30 = add nsw i32 %29, 1
  store i32 %30, i32* %2, align 4
  br label %10

31:                                               ; preds = %22, %10
  %32 = load i32, i32* %6, align 4
  %33 = sub nsw i32 %32, 1
  store i32 %33, i32* %3, align 4
  br label %34

34:                                               ; preds = %45, %31
  %35 = load i32, i32* %3, align 4
  %36 = icmp sge i32 %35, 0
  br i1 %36, label %37, label %48

37:                                               ; preds = %34
  %38 = load i32, i32* %4, align 4
  %39 = srem i32 %38, 10
  %40 = load i32, i32* %3, align 4
  %41 = sext i32 %40 to i64
  %42 = getelementptr inbounds [10 x i32], [10 x i32]* %1, i64 0, i64 %41
  store i32 %39, i32* %42, align 4
  %43 = load i32, i32* %4, align 4
  %44 = sdiv i32 %43, 10
  store i32 %44, i32* %4, align 4
  br label %45

45:                                               ; preds = %37
  %46 = load i32, i32* %3, align 4
  %47 = add nsw i32 %46, -1
  store i32 %47, i32* %3, align 4
  br label %34

48:                                               ; preds = %34
  %49 = load i32, i32* %6, align 4
  %50 = sub nsw i32 %49, 1
  store i32 %50, i32* %5, align 4
  br label %51

51:                                               ; preds = %63, %48
  %52 = load i32, i32* %5, align 4
  %53 = icmp sge i32 %52, 0
  br i1 %53, label %54, label %66

54:                                               ; preds = %51
  %55 = load i32, i32* %7, align 4
  %56 = load i32, i32* %5, align 4
  %57 = sext i32 %56 to i64
  %58 = getelementptr inbounds [10 x i32], [10 x i32]* %1, i64 0, i64 %57
  %59 = load i32, i32* %58, align 4
  %60 = add nsw i32 %55, %59
  store i32 %60, i32* %7, align 4
  %61 = load i32, i32* %7, align 4
  %62 = mul nsw i32 %61, 10
  store i32 %62, i32* %7, align 4
  br label %63

63:                                               ; preds = %54
  %64 = load i32, i32* %5, align 4
  %65 = add nsw i32 %64, -1
  store i32 %65, i32* %5, align 4
  br label %51

66:                                               ; preds = %51
  %67 = load i32, i32* %7, align 4
  %68 = sdiv i32 %67, 10
  store i32 %68, i32* %7, align 4
  %69 = load i32, i32* %7, align 4
  %70 = call i32 (i8*, ...) @printf(i8* getelementptr inbounds ([4 x i8], [4 x i8]* @.str.1, i64 0, i64 0), i32 %69)
  ret void
}

declare dso_local i32 @__isoc99_scanf(i8*, ...) #1

declare dso_local i32 @printf(i8*, ...) #1


!llvm.module.flags = !{!0}
!llvm.ident = !{!1}

!0 = !{i32 1, !"wchar_size", i32 4}
!1 = !{!"clang version 10.0.0-4ubuntu1 "}
